; Function Attrs: nounwind uwtable
define dso_local noundef i32 @Curl_http_useragent(ptr noundef %0) local_unnamed_addr #0 {
  %2 = tail call ptr @Curl_checkheaders(ptr noundef %0, ptr noundef nonnull @.str.28, i64 noundef 10) #11
  %.not = icmp eq ptr %2, null
  br i1 %.not, label %7, label %3

3:                                                ; preds = %1
  %4 = load ptr, ptr @Curl_cfree, align 8, !tbaa !90
  %5 = getelementptr inbounds nuw i8, ptr %0, i64 4768
  %6 = load ptr, ptr %5, align 8, !tbaa !91
  tail call void %4(ptr noundef %6) #11
  store ptr null, ptr %5, align 8, !tbaa !91
  br label %7

7:                                                ; preds = %3, %1
  ret i32 0
}